target datalayout = "e-m:e-p270:32:32-p271:32:32-p272:64:64-i64:64-i128:128-f80:128-n8:16:32:64-S128"
target triple = "x86_64-pc-linux-gnu"

@ID_callback_state = internal global i64 0, align 8
@ossl_ssl_ex_ptr_idx = internal global i32 0, align 4
@id_i_verify_callback = internal global i64 0, align 8
@id_i_verify_hostname = internal global i64 0, align 8
@id_i_context = internal global i64 0, align 8

; Function Attrs: inlinehint nounwind sspstrong willreturn memory(none) uwtable
define internal i64 @RB_INT2FIX(i64 noundef %0) #9 {
  %2 = alloca i64, align 8
  %3 = alloca i64, align 8
  %4 = alloca i64, align 8
  %5 = alloca i64, align 8
  %6 = alloca i64, align 8
  %7 = alloca i64, align 8
  store i64 %0, ptr %2, align 8, !tbaa !14
  call void @llvm.lifetime.start.p0(i64 8, ptr %3) #20
  %8 = load i64, ptr %2, align 8, !tbaa !14
  store i64 %8, ptr %3, align 8, !tbaa !14
  call void @llvm.lifetime.start.p0(i64 8, ptr %4) #20
  %9 = load i64, ptr %3, align 8, !tbaa !14
  %10 = shl i64 %9, 1
  %11 = add i64 %10, 1
  store i64 %11, ptr %4, align 8, !tbaa !14
  call void @llvm.lifetime.start.p0(i64 8, ptr %5) #20
  %12 = load i64, ptr %4, align 8, !tbaa !14
  store i64 %12, ptr %5, align 8, !tbaa !14
  call void @llvm.lifetime.start.p0(i64 8, ptr %6) #20
  %13 = load i64, ptr %5, align 8, !tbaa !14
  store i64 %13, ptr %6, align 8, !tbaa !14
  call void @llvm.lifetime.start.p0(i64 8, ptr %7) #20
  %14 = load i64, ptr %6, align 8, !tbaa !14
  store i64 %14, ptr %7, align 8, !tbaa !14
  %15 = load i64, ptr %7, align 8, !tbaa !14
  call void @llvm.lifetime.end.p0(i64 8, ptr %7) #20
  call void @llvm.lifetime.end.p0(i64 8, ptr %6) #20
  call void @llvm.lifetime.end.p0(i64 8, ptr %5) #20
  call void @llvm.lifetime.end.p0(i64 8, ptr %4) #20
  call void @llvm.lifetime.end.p0(i64 8, ptr %3) #20
  ret i64 %15
}

; Function Attrs: inlinehint nounwind sspstrong uwtable
define internal i64 @rb_int2num_inline(i32 noundef %0) #4 {
  %2 = alloca i64, align 8
  %3 = alloca i32, align 4
  store i32 %0, ptr %3, align 4, !tbaa !12
  %4 = load i32, ptr %3, align 4, !tbaa !12
  %5 = sext i32 %4 to i64
  %6 = icmp slt i64 %5, 4611686018427387904
  br i1 %6, label %7, label %15

7:                                                ; preds = %1
  %8 = load i32, ptr %3, align 4, !tbaa !12
  %9 = sext i32 %8 to i64
  %10 = icmp sge i64 %9, -4611686018427387904
  br i1 %10, label %11, label %15

11:                                               ; preds = %7
  %12 = load i32, ptr %3, align 4, !tbaa !12
  %13 = sext i32 %12 to i64
  %14 = call i64 @RB_INT2FIX(i64 noundef %13) #23
  store i64 %14, ptr %2, align 8
  br label %19

15:                                               ; preds = %7, %1
  %16 = load i32, ptr %3, align 4, !tbaa !12
  %17 = sext i32 %16 to i64
  %18 = call i64 @rb_int2big(i64 noundef %17)
  store i64 %18, ptr %2, align 8
  br label %19

19:                                               ; preds = %15, %11
  %20 = load i64, ptr %2, align 8
  ret i64 %20
}

; Function Attrs: inlinehint nounwind sspstrong willreturn memory(none) uwtable
define internal zeroext i1 @RB_TEST(i64 noundef %0) #9 {
  %2 = alloca i64, align 8
  store i64 %0, ptr %2, align 8, !tbaa !14
  %3 = load i64, ptr %2, align 8, !tbaa !14
  %4 = and i64 %3, -5
  %5 = icmp ne i64 %4, 0
  ret i1 %5
}

; Function Attrs: nounwind sspstrong uwtable
define internal i32 @ossl_ssl_verify_callback(i32 noundef %0, ptr noundef %1) #0 {
  %3 = alloca i32, align 4
  %4 = alloca i32, align 4
  %5 = alloca ptr, align 8
  %6 = alloca i64, align 8
  %7 = alloca i64, align 8
  %8 = alloca i64, align 8
  %9 = alloca i64, align 8
  %10 = alloca i64, align 8
  %11 = alloca ptr, align 8
  %12 = alloca i32, align 4
  %13 = alloca i32, align 4
  store i32 %0, ptr %4, align 4, !tbaa !12
  store ptr %1, ptr %5, align 8, !tbaa !74
  call void @llvm.lifetime.start.p0(i64 8, ptr %6) #20
  call void @llvm.lifetime.start.p0(i64 8, ptr %7) #20
  call void @llvm.lifetime.start.p0(i64 8, ptr %8) #20
  call void @llvm.lifetime.start.p0(i64 8, ptr %9) #20
  call void @llvm.lifetime.start.p0(i64 8, ptr %10) #20
  call void @llvm.lifetime.start.p0(i64 8, ptr %11) #20
  call void @llvm.lifetime.start.p0(i64 4, ptr %12) #20
  %14 = load ptr, ptr %5, align 8, !tbaa !74
  %15 = call i32 @SSL_get_ex_data_X509_STORE_CTX_idx()
  %16 = call ptr @X509_STORE_CTX_get_ex_data(ptr noundef %14, i32 noundef %15)
  store ptr %16, ptr %11, align 8, !tbaa !10
  %17 = load ptr, ptr %11, align 8, !tbaa !10
  %18 = load i32, ptr @ossl_ssl_ex_ptr_idx, align 4, !tbaa !12
  %19 = call ptr @SSL_get_ex_data(ptr noundef %17, i32 noundef %18)
  %20 = ptrtoint ptr %19 to i64
  store i64 %20, ptr %7, align 8, !tbaa !14
  %21 = load i64, ptr %7, align 8, !tbaa !14
  %22 = load i64, ptr @id_i_context, align 8, !tbaa !14
  %23 = call i64 @rb_attr_get(i64 noundef %21, i64 noundef %22)
  store i64 %23, ptr %8, align 8, !tbaa !14
  %24 = load i64, ptr %8, align 8, !tbaa !14
  %25 = load i64, ptr @id_i_verify_callback, align 8, !tbaa !14
  %26 = call i64 @rb_attr_get(i64 noundef %24, i64 noundef %25)
  store i64 %26, ptr %6, align 8, !tbaa !14
  %27 = load i64, ptr %8, align 8, !tbaa !14
  %28 = load i64, ptr @id_i_verify_hostname, align 8, !tbaa !14
  %29 = call i64 @rb_attr_get(i64 noundef %27, i64 noundef %28)
  store i64 %29, ptr %9, align 8, !tbaa !14
  %30 = load i32, ptr %4, align 4, !tbaa !12
  %31 = icmp ne i32 %30, 0
  br i1 %31, label %32, label %61

32:                                               ; preds = %2
  %33 = load i64, ptr %9, align 8, !tbaa !14
  %34 = call zeroext i1 @RB_TEST(i64 noundef %33) #23
  br i1 %34, label %35, label %61

35:                                               ; preds = %32
  %36 = load ptr, ptr %11, align 8, !tbaa !10
  %37 = call i32 @SSL_is_server(ptr noundef %36)
  %38 = icmp ne i32 %37, 0
  br i1 %38, label %61, label %39

39:                                               ; preds = %35
  %40 = load ptr, ptr %5, align 8, !tbaa !74
  %41 = call i32 @X509_STORE_CTX_get_error_depth(ptr noundef %40)
  %42 = icmp ne i32 %41, 0
  br i1 %42, label %61, label %43

43:                                               ; preds = %39
  %44 = load ptr, ptr %5, align 8, !tbaa !74
  %45 = ptrtoint ptr %44 to i64
  %46 = call i64 @rb_protect(ptr noundef @call_verify_certificate_identity, i64 noundef %45, ptr noundef %12)
  store i64 %46, ptr %10, align 8, !tbaa !14
  %47 = load i32, ptr %12, align 4, !tbaa !12
  %48 = icmp ne i32 %47, 0
  br i1 %48, label %49, label %55

49:                                               ; preds = %43
  %50 = load i64, ptr %7, align 8, !tbaa !14
  %51 = load i64, ptr @ID_callback_state, align 8, !tbaa !14
  %52 = load i32, ptr %12, align 4, !tbaa !12
  %53 = call i64 @rb_int2num_inline(i32 noundef %52)
  %54 = call i64 @rb_ivar_set(i64 noundef %50, i64 noundef %51, i64 noundef %53)
  store i32 0, ptr %3, align 4
  store i32 1, ptr %13, align 4
  br label %66

55:                                               ; preds = %43
  %56 = load i64, ptr %10, align 8, !tbaa !14
  %57 = icmp ne i64 %56, 20
  br i1 %57, label %58, label %60

58:                                               ; preds = %55
  store i32 0, ptr %4, align 4, !tbaa !12
  %59 = load ptr, ptr %5, align 8, !tbaa !74
  call void @X509_STORE_CTX_set_error(ptr noundef %59, i32 noundef 62)
  br label %60

60:                                               ; preds = %58, %55
  br label %61

61:                                               ; preds = %60, %39, %35, %32, %2
  %62 = load i64, ptr %6, align 8, !tbaa !14
  %63 = load i32, ptr %4, align 4, !tbaa !12
  %64 = load ptr, ptr %5, align 8, !tbaa !74
  %65 = call i32 @ossl_verify_cb_call(i64 noundef %62, i32 noundef %63, ptr noundef %64)
  store i32 %65, ptr %3, align 4
  store i32 1, ptr %13, align 4
  br label %66

66:                                               ; preds = %61, %49
  call void @llvm.lifetime.end.p0(i64 4, ptr %12) #20
  call void @llvm.lifetime.end.p0(i64 8, ptr %11) #20
  call void @llvm.lifetime.end.p0(i64 8, ptr %10) #20
  call void @llvm.lifetime.end.p0(i64 8, ptr %9) #20
  call void @llvm.lifetime.end.p0(i64 8, ptr %8) #20
  call void @llvm.lifetime.end.p0(i64 8, ptr %7) #20
  call void @llvm.lifetime.end.p0(i64 8, ptr %6) #20
  %67 = load i32, ptr %3, align 4
  ret i32 %67
}