; Function Attrs: nounwind sspstrong uwtable
define internal i32 @ossl_ssl_verify_callback(i32 noundef %0, ptr noundef %1) #0 {
  %3 = alloca i32, align 4
  call void @llvm.lifetime.start.p0(i64 4, ptr nonnull %3) #9
  %4 = tail call i32 @SSL_get_ex_data_X509_STORE_CTX_idx() #9
  %5 = tail call ptr @X509_STORE_CTX_get_ex_data(ptr noundef %1, i32 noundef %4) #9
  %6 = load i32, ptr @ossl_ssl_ex_ptr_idx, align 4, !tbaa !6
  %7 = tail call ptr @SSL_get_ex_data(ptr noundef %5, i32 noundef %6) #9
  %8 = ptrtoint ptr %7 to i64
  %9 = load i64, ptr @id_i_context, align 8, !tbaa !10
  %10 = tail call i64 @rb_attr_get(i64 noundef %8, i64 noundef %9) #9
  %11 = load i64, ptr @id_i_verify_callback, align 8, !tbaa !10
  %12 = tail call i64 @rb_attr_get(i64 noundef %10, i64 noundef %11) #9
  %13 = load i64, ptr @id_i_verify_hostname, align 8, !tbaa !10
  %14 = tail call i64 @rb_attr_get(i64 noundef %10, i64 noundef %13) #9
  %.not = icmp eq i32 %0, 0
  br i1 %.not, label %33, label %15

15:                                               ; preds = %2
  %16 = and i64 %14, -5
  %.not23 = icmp eq i64 %16, 0
  br i1 %.not23, label %33, label %17

17:                                               ; preds = %15
  %18 = tail call i32 @SSL_is_server(ptr noundef %5) #9
  %.not19 = icmp eq i32 %18, 0
  br i1 %.not19, label %19, label %33

19:                                               ; preds = %17
  %20 = tail call i32 @X509_STORE_CTX_get_error_depth(ptr noundef %1) #9
  %.not20 = icmp eq i32 %20, 0
  br i1 %.not20, label %21, label %33

21:                                               ; preds = %19
  %22 = ptrtoint ptr %1 to i64
  %23 = call i64 @rb_protect(ptr noundef nonnull @call_verify_certificate_identity, i64 noundef %22, ptr noundef nonnull %3) #9
  %24 = load i32, ptr %3, align 4, !tbaa !6
  %.not21 = icmp eq i32 %24, 0
  br i1 %.not21, label %31, label %25

25:                                               ; preds = %21
  %26 = load i64, ptr @ID_callback_state, align 8, !tbaa !10
  %27 = sext i32 %24 to i64
  %28 = shl nsw i64 %27, 1
  %29 = or disjoint i64 %28, 1
  %30 = call i64 @rb_ivar_set(i64 noundef %8, i64 noundef %26, i64 noundef %29) #9
  br label %35

31:                                               ; preds = %21
  %.not22 = icmp eq i64 %23, 20
  br i1 %.not22, label %33, label %32

32:                                               ; preds = %31
  call void @X509_STORE_CTX_set_error(ptr noundef %1, i32 noundef 62) #9
  br label %33

33:                                               ; preds = %31, %32, %19, %17, %15, %2
  %.016 = phi i32 [ %0, %17 ], [ %0, %19 ], [ 0, %32 ], [ %0, %31 ], [ %0, %15 ], [ 0, %2 ]
  %34 = call i32 @ossl_verify_cb_call(i64 noundef %12, i32 noundef %.016, ptr noundef %1) #9
  br label %35

35:                                               ; preds = %33, %25
  %.0 = phi i32 [ %34, %33 ], [ 0, %25 ]
  call void @llvm.lifetime.end.p0(i64 4, ptr nonnull %3) #9
  ret i32 %.0
}